(dp0
S' '
p1
I70
sS'$'
p2
I66
sS'('
p3
I81
sS','
p4
I76
sS'0'
p5
I13
sS'4'
p6
I22
sS'8'
p7
I29
sS'<'
p8
I85
sS'@'
p9
I63
sS'D'
p10
I44
sS'H'
p11
I54
sS'L'
p12
I41
sS'P'
p13
I51
sS'T'
p14
I42
sS'X'
p15
I65
sS'\\'
p16
I95
sS'`'
p17
I1
sS'd'
p18
I15
sS'h'
p19
I19
sS'l'
p20
I10
sS'p'
p21
I27
sS't'
p22
I11
sS'x'
p23
I36
sS'|'
p24
I92
sS'#'
p25
I67
sS"'"
p26
I84
sS'+'
p27
I79
sS'/'
p28
I73
sS'3'
p29
I17
sS'7'
p30
I28
sS';'
p31
I77
sS'?'
p32
I74
sS'C'
p33
I49
sS'G'
p34
I55
sS'K'
p35
I57
sS'O'
p36
I46
sS'S'
p37
I40
sS'W'
p38
I59
sS'['
p39
I86
sS'_'
p40
I71
sS'c'
p41
I16
sS'g'
p42
I26
sS'k'
p43
I30
sS'o'
p44
I4
sS's'
p45
I7
sS'w'
p46
I32
sS'{'
p47
I93
sS'unk'
p48
I0
sS'"'
p49
I89
sS'&'
p50
I75
sS'*'
p51
I72
sS'.'
p52
I61
sS'2'
p53
I12
sS'6'
p54
I23
sS':'
p55
I91
sS'>'
p56
I90
sS'B'
p57
I47
sS'F'
p58
I52
sS'J'
p59
I56
sS'N'
p60
I48
sS'R'
p61
I43
sS'V'
p62
I62
sS'Z'
p63
I64
sS'^'
p64
I83
sS'b'
p65
I20
sS'f'
p66
I31
sS'j'
p67
I33
sS'n'
p68
I9
sS'r'
p69
I6
sS'v'
p70
I34
sS'z'
p71
I35
sS'~'
p72
I87
sS'!'
p73
I60
sS'%'
p74
I78
sS')'
p75
I80
sS'-'
p76
I69
sS'1'
p77
I5
sS'5'
p78
I25
sS'9'
p79
I18
sS'='
p80
I82
sS'A'
p81
I37
sS'E'
p82
I39
sS'I'
p83
I50
sS'M'
p84
I45
sS'Q'
p85
I68
sS'U'
p86
I53
sS'Y'
p87
I58
sS']'
p88
I88
sS'a'
p89
I2
sS'e'
p90
I3
sS'i'
p91
I8
sS'm'
p92
I14
sS'q'
p93
I38
sS'u'
p94
I21
sS'y'
p95
I24
sS'}'
p96
I94
s.